target datalayout = "e-m:e-p270:32:32-p271:32:32-p272:64:64-i64:64-i128:128-f80:128-n8:16:32:64-S128"
target triple = "x86_64-pc-linux-gnu"

%"class.Ipopt::Ma27TSolverInterface" = type <{ %"class.Ipopt::SparseSymLinearSolverInterface.base", [7 x i8], %"class.Ipopt::SmartPtr", ptr, ptr, ptr, ptr, i32, i32, i32, i8, i8, i8, i8, double, double, double, double, double, i8, i8, i8, i8, [30 x i32], [4 x i8], [5 x double], i32, [4 x i8], ptr, ptr, i32, i32, i32, [4 x i8], ptr, i8, i8, [6 x i8] }>
%"class.Ipopt::SparseSymLinearSolverInterface.base" = type { %"class.Ipopt::AlgorithmStrategyObject.base" }
%"class.Ipopt::AlgorithmStrategyObject.base" = type <{ %"class.Ipopt::ReferencedObject.base", [4 x i8], %"class.Ipopt::SmartPtr.0", %"class.Ipopt::SmartPtr.1", %"class.Ipopt::SmartPtr.2", %"class.Ipopt::SmartPtr.3", i8 }>
%"class.Ipopt::ReferencedObject.base" = type <{ ptr, i32 }>
%"class.Ipopt::SmartPtr.0" = type { ptr }
%"class.Ipopt::SmartPtr.1" = type { ptr }
%"class.Ipopt::SmartPtr.2" = type { ptr }
%"class.Ipopt::SmartPtr.3" = type { ptr }
%"class.Ipopt::SmartPtr" = type { ptr }

; Function Attrs: mustprogress uwtable
define noundef i32 @_ZN5Ipopt20Ma27TSolverInterface10MultiSolveEbPKiS2_iPdbi(ptr noundef nonnull align 8 dereferenceable(370) %0, i1 noundef zeroext %1, ptr noundef %2, ptr noundef %3, i32 noundef %4, ptr noundef %5, i1 noundef zeroext %6, i32 noundef %7) unnamed_addr #4 align 2 {
  %9 = alloca i32, align 4
  %10 = alloca ptr, align 8
  %11 = alloca i8, align 1
  %12 = alloca ptr, align 8
  %13 = alloca ptr, align 8
  %14 = alloca i32, align 4
  %15 = alloca ptr, align 8
  %16 = alloca i8, align 1
  %17 = alloca i32, align 4
  %18 = alloca i32, align 4
  store ptr %0, ptr %10, align 8
  %19 = zext i1 %1 to i8
  store i8 %19, ptr %11, align 1
  store ptr %2, ptr %12, align 8
  store ptr %3, ptr %13, align 8
  store i32 %4, ptr %14, align 4
  store ptr %5, ptr %15, align 8
  %20 = zext i1 %6 to i8
  store i8 %20, ptr %16, align 1
  store i32 %7, ptr %17, align 4
  %21 = load ptr, ptr %10, align 8
  %22 = getelementptr inbounds %"class.Ipopt::Ma27TSolverInterface", ptr %21, i32 0, i32 11
  %23 = load i8, ptr %22, align 1
  %24 = trunc i8 %23 to i1
  br i1 %24, label %25, label %32

25:                                               ; preds = %8
  %26 = getelementptr inbounds %"class.Ipopt::Ma27TSolverInterface", ptr %21, i32 0, i32 11
  store i8 0, ptr %26, align 1
  %27 = load i8, ptr %11, align 1
  %28 = trunc i8 %27 to i1
  br i1 %28, label %31, label %29

29:                                               ; preds = %25
  %30 = getelementptr inbounds %"class.Ipopt::Ma27TSolverInterface", ptr %21, i32 0, i32 12
  store i8 1, ptr %30, align 2
  store i32 3, ptr %9, align 4
  br label %56

31:                                               ; preds = %25
  br label %32

32:                                               ; preds = %31, %8
  %33 = load i8, ptr %11, align 1
  %34 = trunc i8 %33 to i1
  br i1 %34, label %39, label %35

35:                                               ; preds = %32
  %36 = getelementptr inbounds %"class.Ipopt::Ma27TSolverInterface", ptr %21, i32 0, i32 12
  %37 = load i8, ptr %36, align 2
  %38 = trunc i8 %37 to i1
  br i1 %38, label %39, label %52

39:                                               ; preds = %35, %32
  %40 = load ptr, ptr %12, align 8
  %41 = load ptr, ptr %13, align 8
  %42 = load i8, ptr %16, align 1
  %43 = trunc i8 %42 to i1
  %44 = load i32, ptr %17, align 4
  %45 = call noundef i32 @_ZN5Ipopt20Ma27TSolverInterface13FactorizationEPKiS2_bi(ptr noundef nonnull align 8 dereferenceable(370) %21, ptr noundef %40, ptr noundef %41, i1 noundef zeroext %43, i32 noundef %44)
  store i32 %45, ptr %18, align 4
  %46 = load i32, ptr %18, align 4
  %47 = icmp ne i32 %46, 0
  br i1 %47, label %48, label %50

48:                                               ; preds = %39
  %49 = load i32, ptr %18, align 4
  store i32 %49, ptr %9, align 4
  br label %56

50:                                               ; preds = %39
  %51 = getelementptr inbounds %"class.Ipopt::Ma27TSolverInterface", ptr %21, i32 0, i32 12
  store i8 0, ptr %51, align 2
  br label %52

52:                                               ; preds = %50, %35
  %53 = load i32, ptr %14, align 4
  %54 = load ptr, ptr %15, align 8
  %55 = call noundef i32 @_ZN5Ipopt20Ma27TSolverInterface9BacksolveEiPd(ptr noundef nonnull align 8 dereferenceable(370) %21, i32 noundef %53, ptr noundef %54)
  store i32 %55, ptr %9, align 4
  br label %56

56:                                               ; preds = %52, %48, %29
  %57 = load i32, ptr %9, align 4
  ret i32 %57
}