; Function Attrs: mustprogress uwtable
define noundef i32 @_ZN5Ipopt20Ma27TSolverInterface10MultiSolveEbPKiS2_iPdbi(ptr noundef nonnull align 8 dereferenceable(370) %0, i1 noundef zeroext %1, ptr noundef %2, ptr noundef %3, i32 noundef %4, ptr noundef %5, i1 noundef zeroext %6, i32 noundef %7) unnamed_addr #3 align 2 {
  %9 = getelementptr inbounds i8, ptr %0, i64 109
  %10 = load i8, ptr %9, align 1
  %11 = and i8 %10, 1
  %.not = icmp eq i8 %11, 0
  br i1 %.not, label %15, label %12

12:                                               ; preds = %8
  store i8 0, ptr %9, align 1
  br i1 %1, label %.critedge, label %13

13:                                               ; preds = %12
  %14 = getelementptr inbounds i8, ptr %0, i64 110
  store i8 1, ptr %14, align 2
  br label %25

15:                                               ; preds = %8
  br i1 %1, label %.critedge, label %16

16:                                               ; preds = %15
  %17 = getelementptr inbounds i8, ptr %0, i64 110
  %18 = load i8, ptr %17, align 2
  %19 = and i8 %18, 1
  %.not12 = icmp eq i8 %19, 0
  br i1 %.not12, label %23, label %.critedge

.critedge:                                        ; preds = %12, %16, %15
  %20 = tail call noundef i32 @_ZN5Ipopt20Ma27TSolverInterface13FactorizationEPKiS2_bi(ptr noundef nonnull align 8 dereferenceable(370) %0, ptr noundef %2, ptr noundef %3, i1 noundef zeroext %6, i32 noundef %7), !range !4
  %.not13 = icmp eq i32 %20, 0
  br i1 %.not13, label %21, label %25

21:                                               ; preds = %.critedge
  %22 = getelementptr inbounds i8, ptr %0, i64 110
  store i8 0, ptr %22, align 2
  br label %23

23:                                               ; preds = %21, %16
  %24 = tail call noundef i32 @_ZN5Ipopt20Ma27TSolverInterface9BacksolveEiPd(ptr noundef nonnull align 8 dereferenceable(370) %0, i32 noundef %4, ptr noundef %5)
  br label %25

25:                                               ; preds = %.critedge, %23, %13
  %.0 = phi i32 [ 0, %23 ], [ 3, %13 ], [ %20, %.critedge ]
  ret i32 %.0
}